; Function Attrs: mustprogress nounwind uwtable
define hidden void @_ZN6Assimp15BlenderImporterD2Ev(ptr noundef nonnull align 8 dereferenceable(80) %this) unnamed_addr #5 align 2 personality ptr @__gxx_personality_v0 {
entry:
  store ptr getelementptr inbounds ({ [8 x ptr] }, ptr @_ZTVN6Assimp15BlenderImporterE, i64 0, i32 0, i64 2), ptr %this, align 8
  %modifier_cache = getelementptr inbounds i8, ptr %this, i64 72
  %0 = load ptr, ptr %modifier_cache, align 8
  %isnull = icmp eq ptr %0, null
  br i1 %isnull, label %delete.end, label %delete.notnull

delete.notnull:                                   ; preds = %entry
  %1 = load ptr, ptr %0, align 8
  %_M_finish.i.i.i = getelementptr inbounds i8, ptr %0, i64 8
  %2 = load ptr, ptr %_M_finish.i.i.i, align 8
  %cmp.i.not4.i.i = icmp eq ptr %1, %2
  br i1 %cmp.i.not4.i.i, label %for.end.i.i, label %for.body.i.i

for.body.i.i:                                     ; preds = %delete.notnull, %for.inc.i.i
  %__begin0.sroa.0.05.i.i = phi ptr [ %incdec.ptr.i.i.i, %for.inc.i.i ], [ %1, %delete.notnull ]
  %3 = load ptr, ptr %__begin0.sroa.0.05.i.i, align 8
  %isnull.i.i = icmp eq ptr %3, null
  br i1 %isnull.i.i, label %for.inc.i.i, label %delete.notnull.i.i

delete.notnull.i.i:                               ; preds = %for.body.i.i
  %vtable.i.i = load ptr, ptr %3, align 8
  %vfn.i.i = getelementptr inbounds i8, ptr %vtable.i.i, i64 8
  %4 = load ptr, ptr %vfn.i.i, align 8
  tail call void %4(ptr noundef nonnull align 8 dereferenceable(8) %3) #20
  br label %for.inc.i.i

for.inc.i.i:                                      ; preds = %delete.notnull.i.i, %for.body.i.i
  %incdec.ptr.i.i.i = getelementptr inbounds i8, ptr %__begin0.sroa.0.05.i.i, i64 8
  %cmp.i.not.i.i = icmp eq ptr %incdec.ptr.i.i.i, %2
  br i1 %cmp.i.not.i.i, label %for.end.loopexit.i.i, label %for.body.i.i

for.end.loopexit.i.i:                             ; preds = %for.inc.i.i
  %.pre.i.i = load ptr, ptr %0, align 8
  br label %for.end.i.i

for.end.i.i:                                      ; preds = %for.end.loopexit.i.i, %delete.notnull
  %5 = phi ptr [ %.pre.i.i, %for.end.loopexit.i.i ], [ %1, %delete.notnull ]
  %tobool.not.i.i.i.i.i = icmp eq ptr %5, null
  br i1 %tobool.not.i.i.i.i.i, label %_ZN6Assimp7Blender23BlenderModifierShowcaseD2Ev.exit, label %if.then.i.i.i.i.i

if.then.i.i.i.i.i:                                ; preds = %for.end.i.i
  tail call void @_ZdlPv(ptr noundef nonnull %5) #22
  br label %_ZN6Assimp7Blender23BlenderModifierShowcaseD2Ev.exit

_ZN6Assimp7Blender23BlenderModifierShowcaseD2Ev.exit: ; preds = %for.end.i.i, %if.then.i.i.i.i.i
  tail call void @_ZdlPv(ptr noundef nonnull %0) #22
  br label %delete.end

delete.end:                                       ; preds = %_ZN6Assimp7Blender23BlenderModifierShowcaseD2Ev.exit, %entry
  tail call void @_ZN6Assimp12BaseImporterD2Ev(ptr noundef nonnull align 8 dereferenceable(72) %this) #20
  ret void
}